; Function Attrs: nounwind uwtable
define ptr @Abc_GiaSynthesizeInter(ptr noundef %0) local_unnamed_addr #0 {
Vec_PtrPush.exit:
  %1 = tail call noalias dereferenceable_or_null(16) ptr @malloc(i64 noundef 16) #30
  %2 = getelementptr inbounds nuw i8, ptr %1, i64 4
  store i32 8, ptr %1, align 8
  %3 = tail call noalias dereferenceable_or_null(64) ptr @malloc(i64 noundef 64) #30
  %4 = getelementptr inbounds nuw i8, ptr %1, i64 8
  store ptr %3, ptr %4, align 8
  store i32 1, ptr %2, align 4
  store ptr %0, ptr %3, align 8
  %5 = tail call ptr @Abc_NtkCreateFromGias(ptr noundef nonnull @.str.44, ptr noundef nonnull %1, ptr noundef null) #28
  %6 = load ptr, ptr %4, align 8
  %.not.i = icmp eq ptr %6, null
  br i1 %.not.i, label %Vec_PtrFree.exit, label %7

7:                                                ; preds = %Vec_PtrPush.exit
  tail call void @free(ptr noundef nonnull %6) #28
  br label %Vec_PtrFree.exit

Vec_PtrFree.exit:                                 ; preds = %Vec_PtrPush.exit, %7
  tail call void @free(ptr noundef nonnull %1) #28
  %8 = tail call ptr (...) @Abc_FrameReadGlobalFrame() #28
  tail call void @Abc_FrameReplaceCurrentNetwork(ptr noundef %8, ptr noundef %5) #28
  %9 = tail call ptr (...) @Abc_FrameGetGlobalFrame() #28
  %10 = tail call i32 @Cmd_CommandExecute(ptr noundef %9, ptr noundef nonnull @.str.47) #28
  %11 = tail call ptr (...) @Abc_FrameReadGlobalFrame() #28
  %12 = tail call ptr @Abc_FrameReadNtk(ptr noundef %11) #28
  %13 = tail call ptr @Abc_NtkClpGia(ptr noundef %12) #28
  ret ptr %13
}